target datalayout = "e-m:e-p270:32:32-p271:32:32-p272:64:64-i64:64-i128:128-f80:128-n8:16:32:64-S128"
target triple = "x86_64-pc-linux-gnu"

%struct._object = type { %union.anon, ptr }
%union.anon = type { i64 }
%struct.ExampleObject = type { %struct._object, ptr }

@PyExc_KeyError = external global ptr, align 8
@PyExc_AttributeError = external global ptr, align 8
@.str.22 = private unnamed_addr constant [38 x i8] c"delete non-existing Example attribute\00", align 1

; Function Attrs: nounwind uwtable
define internal i32 @Example_setattr(ptr noundef %0, ptr noundef %1, ptr noundef %2) #0 {
  %4 = alloca i32, align 4
  %5 = alloca ptr, align 8
  %6 = alloca ptr, align 8
  %7 = alloca ptr, align 8
  %8 = alloca i32, align 4
  store ptr %0, ptr %5, align 8, !tbaa !17
  store ptr %1, ptr %6, align 8, !tbaa !24
  store ptr %2, ptr %7, align 8, !tbaa !3
  %9 = load ptr, ptr %5, align 8, !tbaa !17
  %10 = getelementptr inbounds nuw %struct.ExampleObject, ptr %9, i32 0, i32 1
  %11 = load ptr, ptr %10, align 8, !tbaa !20
  %12 = icmp eq ptr %11, null
  br i1 %12, label %13, label %23

13:                                               ; preds = %3
  %14 = call ptr @PyDict_New()
  %15 = load ptr, ptr %5, align 8, !tbaa !17
  %16 = getelementptr inbounds nuw %struct.ExampleObject, ptr %15, i32 0, i32 1
  store ptr %14, ptr %16, align 8, !tbaa !20
  %17 = load ptr, ptr %5, align 8, !tbaa !17
  %18 = getelementptr inbounds nuw %struct.ExampleObject, ptr %17, i32 0, i32 1
  %19 = load ptr, ptr %18, align 8, !tbaa !20
  %20 = icmp eq ptr %19, null
  br i1 %20, label %21, label %22

21:                                               ; preds = %13
  store i32 -1, ptr %4, align 4
  br label %49

22:                                               ; preds = %13
  br label %23

23:                                               ; preds = %22, %3
  %24 = load ptr, ptr %7, align 8, !tbaa !3
  %25 = icmp eq ptr %24, null
  br i1 %25, label %26, label %42

26:                                               ; preds = %23
  call void @llvm.lifetime.start.p0(i64 4, ptr %8) #5
  %27 = load ptr, ptr %5, align 8, !tbaa !17
  %28 = getelementptr inbounds nuw %struct.ExampleObject, ptr %27, i32 0, i32 1
  %29 = load ptr, ptr %28, align 8, !tbaa !20
  %30 = load ptr, ptr %6, align 8, !tbaa !24
  %31 = call i32 @PyDict_DelItemString(ptr noundef %29, ptr noundef %30)
  store i32 %31, ptr %8, align 4, !tbaa !13
  %32 = load i32, ptr %8, align 4, !tbaa !13
  %33 = icmp slt i32 %32, 0
  br i1 %33, label %34, label %40

34:                                               ; preds = %26
  %35 = load ptr, ptr @PyExc_KeyError, align 8, !tbaa !3
  %36 = call i32 @PyErr_ExceptionMatches(ptr noundef %35)
  %37 = icmp ne i32 %36, 0
  br i1 %37, label %38, label %40

38:                                               ; preds = %34
  %39 = load ptr, ptr @PyExc_AttributeError, align 8, !tbaa !3
  call void @PyErr_SetString(ptr noundef %39, ptr noundef @.str.22)
  br label %40

40:                                               ; preds = %38, %34, %26
  %41 = load i32, ptr %8, align 4, !tbaa !13
  store i32 %41, ptr %4, align 4
  call void @llvm.lifetime.end.p0(i64 4, ptr %8) #5
  br label %49

42:                                               ; preds = %23
  %43 = load ptr, ptr %5, align 8, !tbaa !17
  %44 = getelementptr inbounds nuw %struct.ExampleObject, ptr %43, i32 0, i32 1
  %45 = load ptr, ptr %44, align 8, !tbaa !20
  %46 = load ptr, ptr %6, align 8, !tbaa !24
  %47 = load ptr, ptr %7, align 8, !tbaa !3
  %48 = call i32 @PyDict_SetItemString(ptr noundef %45, ptr noundef %46, ptr noundef %47)
  store i32 %48, ptr %4, align 4
  br label %49

49:                                               ; preds = %42, %40, %21
  %50 = load i32, ptr %4, align 4
  ret i32 %50
}